; Function Attrs: nounwind uwtable
define ptr @l___private_Lean_Elab_Tactic_BVDecide_Frontend_Normalize_AC_0__Lean_Elab_Tactic_BVDecide_Frontend_Normalize_reprOp____x40_Lean_Elab_Tactic_BVDecide_Frontend_Normalize_AC___hyg_151_(ptr noundef %0, ptr noundef %1) local_unnamed_addr #0 {
  %3 = ptrtoint ptr %1 to i64
  %4 = and i64 %3, 1
  %.not = icmp eq i64 %4, 0
  br i1 %.not, label %.critedge.i, label %5, !prof !12

5:                                                ; preds = %2
  %6 = icmp uge ptr %1, inttoptr (i64 2049 to ptr)
  br label %lean_nat_le.exit

.critedge.i:                                      ; preds = %2
  %7 = tail call zeroext i1 @lean_nat_big_le(ptr noundef nonnull inttoptr (i64 2049 to ptr), ptr noundef %1) #5
  br label %lean_nat_le.exit

lean_nat_le.exit:                                 ; preds = %5, %.critedge.i
  %.0.i = phi i1 [ %6, %5 ], [ %7, %.critedge.i ]
  %8 = tail call ptr @l___private_Lean_Expr_0__Lean_reprExpr____x40_Lean_Expr___hyg_2988_(ptr noundef %0, ptr noundef nonnull inttoptr (i64 2049 to ptr)) #5
  %9 = load ptr, ptr @l___private_Lean_Elab_Tactic_BVDecide_Frontend_Normalize_AC_0__Lean_Elab_Tactic_BVDecide_Frontend_Normalize_reprOp____x40_Lean_Elab_Tactic_BVDecide_Frontend_Normalize_AC___hyg_151____closed__3, align 8, !tbaa !4
  tail call void @lean_inc_heartbeat() #5
  %10 = tail call noalias ptr @mi_malloc_small(i64 noundef 24) #5
  %11 = icmp eq ptr %10, null
  br i1 %11, label %12, label %lean_alloc_ctor.exit

12:                                               ; preds = %lean_nat_le.exit
  tail call void @lean_internal_panic_out_of_memory() #6
  unreachable

lean_alloc_ctor.exit:                             ; preds = %lean_nat_le.exit
  %13 = getelementptr inbounds nuw i8, ptr %10, i64 4
  store i32 1, ptr %10, align 4, !tbaa !8
  store i32 84017176, ptr %13, align 4
  %14 = getelementptr inbounds nuw i8, ptr %10, i64 8
  store ptr %9, ptr %14, align 8, !tbaa !4
  %15 = getelementptr inbounds nuw i8, ptr %10, i64 16
  store ptr %8, ptr %15, align 8, !tbaa !4
  br i1 %.0.i, label %27, label %16

16:                                               ; preds = %lean_alloc_ctor.exit
  %17 = load ptr, ptr @l___private_Lean_Elab_Tactic_BVDecide_Frontend_Normalize_AC_0__Lean_Elab_Tactic_BVDecide_Frontend_Normalize_reprOp____x40_Lean_Elab_Tactic_BVDecide_Frontend_Normalize_AC___hyg_151____closed__4, align 8, !tbaa !4
  tail call void @lean_inc_heartbeat() #5
  %18 = tail call noalias ptr @mi_malloc_small(i64 noundef 24) #5
  %19 = icmp eq ptr %18, null
  br i1 %19, label %20, label %lean_alloc_ctor.exit31

20:                                               ; preds = %16
  tail call void @lean_internal_panic_out_of_memory() #6
  unreachable

lean_alloc_ctor.exit31:                           ; preds = %16
  %21 = getelementptr inbounds nuw i8, ptr %18, i64 4
  store i32 1, ptr %18, align 4, !tbaa !8
  store i32 67239960, ptr %21, align 4
  %22 = getelementptr inbounds nuw i8, ptr %18, i64 8
  store ptr %17, ptr %22, align 8, !tbaa !4
  %23 = getelementptr inbounds nuw i8, ptr %18, i64 16
  store ptr %10, ptr %23, align 8, !tbaa !4
  tail call void @lean_inc_heartbeat() #5
  %24 = tail call noalias ptr @mi_malloc_small(i64 noundef 24) #5
  %25 = icmp eq ptr %24, null
  br i1 %25, label %26, label %lean_alloc_ctor.exit32

26:                                               ; preds = %lean_alloc_ctor.exit31
  tail call void @lean_internal_panic_out_of_memory() #6
  unreachable

27:                                               ; preds = %lean_alloc_ctor.exit
  %28 = load ptr, ptr @l___private_Lean_Elab_Tactic_BVDecide_Frontend_Normalize_AC_0__Lean_Elab_Tactic_BVDecide_Frontend_Normalize_reprOp____x40_Lean_Elab_Tactic_BVDecide_Frontend_Normalize_AC___hyg_151____closed__5, align 8, !tbaa !4
  tail call void @lean_inc_heartbeat() #5
  %29 = tail call noalias ptr @mi_malloc_small(i64 noundef 24) #5
  %30 = icmp eq ptr %29, null
  br i1 %30, label %31, label %lean_alloc_ctor.exit33

31:                                               ; preds = %27
  tail call void @lean_internal_panic_out_of_memory() #6
  unreachable

lean_alloc_ctor.exit33:                           ; preds = %27
  %32 = getelementptr inbounds nuw i8, ptr %29, i64 4
  store i32 1, ptr %29, align 4, !tbaa !8
  store i32 67239960, ptr %32, align 4
  %33 = getelementptr inbounds nuw i8, ptr %29, i64 8
  store ptr %28, ptr %33, align 8, !tbaa !4
  %34 = getelementptr inbounds nuw i8, ptr %29, i64 16
  store ptr %10, ptr %34, align 8, !tbaa !4
  tail call void @lean_inc_heartbeat() #5
  %35 = tail call noalias ptr @mi_malloc_small(i64 noundef 24) #5
  %36 = icmp eq ptr %35, null
  br i1 %36, label %37, label %lean_alloc_ctor.exit32

37:                                               ; preds = %lean_alloc_ctor.exit33
  tail call void @lean_internal_panic_out_of_memory() #6
  unreachable

lean_alloc_ctor.exit32:                           ; preds = %lean_alloc_ctor.exit33, %lean_alloc_ctor.exit31
  %.sink43 = phi ptr [ %24, %lean_alloc_ctor.exit31 ], [ %35, %lean_alloc_ctor.exit33 ]
  %.sink36 = phi ptr [ %18, %lean_alloc_ctor.exit31 ], [ %29, %lean_alloc_ctor.exit33 ]
  %38 = getelementptr inbounds nuw i8, ptr %.sink43, i64 4
  %39 = getelementptr inbounds nuw i8, ptr %.sink43, i64 16
  store i64 0, ptr %39, align 8, !tbaa !13
  store i32 1, ptr %.sink43, align 4, !tbaa !8
  store i32 100728856, ptr %38, align 4
  %40 = getelementptr inbounds nuw i8, ptr %.sink43, i64 8
  store ptr %.sink36, ptr %40, align 8, !tbaa !4
  %41 = tail call ptr @l_Repr_addAppParen(ptr noundef nonnull %.sink43, ptr noundef %1) #5
  ret ptr %41
}